target datalayout = "e-m:e-p270:32:32-p271:32:32-p272:64:64-i64:64-i128:128-f80:128-n8:16:32:64-S128"
target triple = "x86_64-unknown-linux-gnu"

%"class.llvh::MutableArrayRef" = type { %"class.llvh::ArrayRef" }
%"class.llvh::ArrayRef" = type { ptr, i64 }
%"struct.hermes::hbc::BytecodeFileFields" = type { ptr, %"class.llvh::MutableArrayRef.0", %"class.llvh::MutableArrayRef.2", %"class.llvh::MutableArrayRef.4", %"class.llvh::MutableArrayRef.6", %"class.llvh::MutableArrayRef.8", %"class.llvh::MutableArrayRef", %"class.llvh::MutableArrayRef", %"class.llvh::MutableArrayRef", %"class.llvh::MutableArrayRef", %"class.llvh::MutableArrayRef.10", %"class.llvh::MutableArrayRef", %"class.llvh::MutableArrayRef.12", %"class.llvh::MutableArrayRef", %"class.llvh::MutableArrayRef.14", %"class.llvh::MutableArrayRef.14", %"class.llvh::MutableArrayRef.14" }
%"class.llvh::MutableArrayRef.0" = type { %"class.llvh::ArrayRef.1" }
%"class.llvh::ArrayRef.1" = type { ptr, i64 }
%"class.llvh::MutableArrayRef.2" = type { %"class.llvh::ArrayRef.3" }
%"class.llvh::ArrayRef.3" = type { ptr, i64 }
%"class.llvh::MutableArrayRef.4" = type { %"class.llvh::ArrayRef.5" }
%"class.llvh::ArrayRef.5" = type { ptr, i64 }
%"class.llvh::MutableArrayRef.6" = type { %"class.llvh::ArrayRef.7" }
%"class.llvh::ArrayRef.7" = type { ptr, i64 }
%"class.llvh::MutableArrayRef.8" = type { %"class.llvh::ArrayRef.9" }
%"class.llvh::ArrayRef.9" = type { ptr, i64 }
%"class.llvh::MutableArrayRef.10" = type { %"class.llvh::ArrayRef.11" }
%"class.llvh::ArrayRef.11" = type { ptr, i64 }
%"class.llvh::MutableArrayRef.12" = type { %"class.llvh::ArrayRef.13" }
%"class.llvh::ArrayRef.13" = type { ptr, i64 }
%"class.llvh::MutableArrayRef.14" = type { %"class.llvh::ArrayRef.15" }
%"class.llvh::ArrayRef.15" = type { ptr, i64 }
%"class.std::unique_ptr" = type { %"struct.std::__uniq_ptr_data" }
%"struct.std::__uniq_ptr_data" = type { %"class.std::__uniq_ptr_impl" }
%"class.std::__uniq_ptr_impl" = type { %"class.std::tuple" }
%"class.std::tuple" = type { %"struct.std::_Tuple_impl" }
%"struct.std::_Tuple_impl" = type { %"struct.std::_Head_base.17" }
%"struct.std::_Head_base.17" = type { ptr }
%"class.(anonymous namespace)::BytecodeFormConverter.18" = type { %"class.llvh::MutableArrayRef", %"struct.hermes::hbc::BytecodeFileFields", %"class.std::unique_ptr" }
%"struct.hermes::hbc::SmallFuncHeader" = type { [15 x i8], %"union.hermes::hbc::FunctionHeaderFlag" }
%"union.hermes::hbc::FunctionHeaderFlag" = type { %struct.anon.60 }
%struct.anon.60 = type { i8 }
%"struct.hermes::hbc::FunctionHeader" = type <{ i32, i32, i32, i32, i32, i32, i32, i8, i8, %"union.hermes::hbc::FunctionHeaderFlag" }>
%"struct.(anonymous namespace)::BytecodeFormConverter<hermes::hbc::BytecodeForm::Execution>::Adjuster" = type { i64 }

; Function Attrs: mustprogress nounwind uwtable
define linkonce_odr hidden noundef ptr @_ZNK4llvh8ArrayRefIhE4dataEv(ptr noundef nonnull align 8 dereferenceable(16) %this) #0 comdat align 2 {
entry:
  %this.addr = alloca ptr, align 8
  store ptr %this, ptr %this.addr, align 8
  %this1 = load ptr, ptr %this.addr, align 8
  %Data = getelementptr inbounds %"class.llvh::ArrayRef", ptr %this1, i32 0, i32 0
  %0 = load ptr, ptr %Data, align 8
  ret ptr %0
}

; Function Attrs: mustprogress nounwind uwtable
define linkonce_odr hidden noundef ptr @_ZNK4llvh8ArrayRefIN6hermes3hbc15SmallFuncHeaderEE4dataEv(ptr noundef nonnull align 8 dereferenceable(16) %this) #0 comdat align 2 {
entry:
  %this.addr = alloca ptr, align 8
  store ptr %this, ptr %this.addr, align 8
  %this1 = load ptr, ptr %this.addr, align 8
  %Data = getelementptr inbounds %"class.llvh::ArrayRef.1", ptr %this1, i32 0, i32 0
  %0 = load ptr, ptr %Data, align 8
  ret ptr %0
}

; Function Attrs: mustprogress nounwind uwtable
define internal noundef i32 @_ZN12_GLOBAL__N_121BytecodeFormConverterILN6hermes3hbc12BytecodeFormE0EE8Adjuster5applyIjEET_S7_(ptr noundef nonnull align 8 dereferenceable(8) %this, i32 noundef %value) #0 align 2 {
entry:
  %this.addr = alloca ptr, align 8
  %value.addr = alloca i32, align 4
  %result = alloca i64, align 8
  store ptr %this, ptr %this.addr, align 8
  store i32 %value, ptr %value.addr, align 4
  %this1 = load ptr, ptr %this.addr, align 8
  %0 = load i32, ptr %value.addr, align 4
  %conv = zext i32 %0 to i64
  %current_ = getelementptr inbounds %"struct.(anonymous namespace)::BytecodeFormConverter<hermes::hbc::BytecodeForm::Execution>::Adjuster", ptr %this1, i32 0, i32 0
  %1 = load i64, ptr %current_, align 8
  %add = add i64 %conv, %1
  store i64 %add, ptr %result, align 8
  %2 = load i64, ptr %result, align 8
  %current_2 = getelementptr inbounds %"struct.(anonymous namespace)::BytecodeFormConverter<hermes::hbc::BytecodeForm::Execution>::Adjuster", ptr %this1, i32 0, i32 0
  store i64 %2, ptr %current_2, align 8
  %3 = load i64, ptr %result, align 8
  %conv3 = trunc i64 %3 to i32
  ret i32 %conv3
}

; Function Attrs: mustprogress nounwind uwtable
define linkonce_odr hidden noundef ptr @_ZNK4llvh15MutableArrayRefIhE4dataEv(ptr noundef nonnull align 8 dereferenceable(16) %this) #0 comdat align 2 {
entry:
  %this.addr = alloca ptr, align 8
  store ptr %this, ptr %this.addr, align 8
  %this1 = load ptr, ptr %this.addr, align 8
  %call = call noundef ptr @_ZNK4llvh8ArrayRefIhE4dataEv(ptr noundef nonnull align 8 dereferenceable(16) %this1)
  ret ptr %call
}

; Function Attrs: mustprogress nounwind uwtable
define linkonce_odr hidden noundef i64 @_ZNK4llvh8ArrayRefIN6hermes3hbc15SmallFuncHeaderEE4sizeEv(ptr noundef nonnull align 8 dereferenceable(16) %this) #0 comdat align 2 {
entry:
  %this.addr = alloca ptr, align 8
  store ptr %this, ptr %this.addr, align 8
  %this1 = load ptr, ptr %this.addr, align 8
  %Length = getelementptr inbounds %"class.llvh::ArrayRef.1", ptr %this1, i32 0, i32 1
  %0 = load i64, ptr %Length, align 8
  ret i64 %0
}

; Function Attrs: mustprogress nounwind uwtable
define linkonce_odr hidden noundef ptr @_ZNK4llvh15MutableArrayRefIN6hermes3hbc15SmallFuncHeaderEE4dataEv(ptr noundef nonnull align 8 dereferenceable(16) %this) #0 comdat align 2 {
entry:
  %this.addr = alloca ptr, align 8
  store ptr %this, ptr %this.addr, align 8
  %this1 = load ptr, ptr %this.addr, align 8
  %call = call noundef ptr @_ZNK4llvh8ArrayRefIN6hermes3hbc15SmallFuncHeaderEE4dataEv(ptr noundef nonnull align 8 dereferenceable(16) %this1)
  ret ptr %call
}

; Function Attrs: mustprogress nounwind uwtable
define internal void @_ZN12_GLOBAL__N_121BytecodeFormConverterILN6hermes3hbc12BytecodeFormE0EE8AdjusterclIjEEvRT_(ptr noundef nonnull align 8 dereferenceable(8) %this, ptr noundef nonnull align 4 dereferenceable(4) %value) #0 align 2 {
entry:
  %this.addr = alloca ptr, align 8
  %value.addr = alloca ptr, align 8
  store ptr %this, ptr %this.addr, align 8
  store ptr %value, ptr %value.addr, align 8
  %this1 = load ptr, ptr %this.addr, align 8
  %0 = load ptr, ptr %value.addr, align 8
  %1 = load i32, ptr %0, align 4
  %call = call noundef i32 @_ZN12_GLOBAL__N_121BytecodeFormConverterILN6hermes3hbc12BytecodeFormE0EE8Adjuster5applyIjEET_S7_(ptr noundef nonnull align 8 dereferenceable(8) %this1, i32 noundef %1)
  %2 = load ptr, ptr %value.addr, align 8
  store i32 %call, ptr %2, align 4
  ret void
}

; Function Attrs: mustprogress nounwind uwtable
define linkonce_odr hidden noundef nonnull align 1 dereferenceable(1) ptr @_ZNK4llvh15MutableArrayRefIhEixEm(ptr noundef nonnull align 8 dereferenceable(16) %this, i64 noundef %Index) #0 comdat align 2 {
entry:
  %this.addr = alloca ptr, align 8
  %Index.addr = alloca i64, align 8
  store ptr %this, ptr %this.addr, align 8
  store i64 %Index, ptr %Index.addr, align 8
  %this1 = load ptr, ptr %this.addr, align 8
  %call = call noundef ptr @_ZNK4llvh15MutableArrayRefIhE4dataEv(ptr noundef nonnull align 8 dereferenceable(16) %this1)
  %0 = load i64, ptr %Index.addr, align 8
  %arrayidx = getelementptr inbounds i8, ptr %call, i64 %0
  ret ptr %arrayidx
}

; Function Attrs: mustprogress nounwind uwtable
define linkonce_odr hidden noundef i32 @_ZNK6hermes3hbc15SmallFuncHeader20getLargeHeaderOffsetEv(ptr noundef nonnull align 1 dereferenceable(16) %this) #0 comdat align 2 {
entry:
  %this.addr = alloca ptr, align 8
  store ptr %this, ptr %this.addr, align 8
  %this1 = load ptr, ptr %this.addr, align 8
  %bf.load = load i120, ptr %this1, align 1
  %bf.lshr = lshr i120 %bf.load, 64
  %bf.clear = and i120 %bf.lshr, 33554431
  %bf.cast = trunc i120 %bf.clear to i32
  %shl = shl i32 %bf.cast, 16
  %bf.load2 = load i120, ptr %this1, align 1
  %bf.clear3 = and i120 %bf.load2, 33554431
  %bf.cast4 = trunc i120 %bf.clear3 to i32
  %or = or i32 %shl, %bf.cast4
  ret i32 %or
}

; Function Attrs: mustprogress nounwind uwtable
define linkonce_odr hidden noundef ptr @_ZNK4llvh15MutableArrayRefIN6hermes3hbc15SmallFuncHeaderEE3endEv(ptr noundef nonnull align 8 dereferenceable(16) %this) #0 comdat align 2 {
entry:
  %this.addr = alloca ptr, align 8
  store ptr %this, ptr %this.addr, align 8
  %this1 = load ptr, ptr %this.addr, align 8
  %call = call noundef ptr @_ZNK4llvh15MutableArrayRefIN6hermes3hbc15SmallFuncHeaderEE4dataEv(ptr noundef nonnull align 8 dereferenceable(16) %this1)
  %call2 = call noundef i64 @_ZNK4llvh8ArrayRefIN6hermes3hbc15SmallFuncHeaderEE4sizeEv(ptr noundef nonnull align 8 dereferenceable(16) %this1)
  %add.ptr = getelementptr inbounds %"struct.hermes::hbc::SmallFuncHeader", ptr %call, i64 %call2
  ret ptr %add.ptr
}

; Function Attrs: mustprogress nounwind uwtable
define linkonce_odr hidden noundef ptr @_ZNK4llvh15MutableArrayRefIN6hermes3hbc15SmallFuncHeaderEE5beginEv(ptr noundef nonnull align 8 dereferenceable(16) %this) #0 comdat align 2 {
entry:
  %this.addr = alloca ptr, align 8
  store ptr %this, ptr %this.addr, align 8
  %this1 = load ptr, ptr %this.addr, align 8
  %call = call noundef ptr @_ZNK4llvh15MutableArrayRefIN6hermes3hbc15SmallFuncHeaderEE4dataEv(ptr noundef nonnull align 8 dereferenceable(16) %this1)
  ret ptr %call
}

; Function Attrs: mustprogress nounwind uwtable
define internal void @_ZN12_GLOBAL__N_121BytecodeFormConverterILN6hermes3hbc12BytecodeFormE0EE8AdjusterC2Ev(ptr noundef nonnull align 8 dereferenceable(8) %this) unnamed_addr #0 align 2 {
entry:
  %this.addr = alloca ptr, align 8
  store ptr %this, ptr %this.addr, align 8
  %this1 = load ptr, ptr %this.addr, align 8
  %current_ = getelementptr inbounds %"struct.(anonymous namespace)::BytecodeFormConverter<hermes::hbc::BytecodeForm::Execution>::Adjuster", ptr %this1, i32 0, i32 0
  store i64 0, ptr %current_, align 8
  ret void
}

; Function Attrs: mustprogress nounwind uwtable
define internal void @_ZN12_GLOBAL__N_121BytecodeFormConverterILN6hermes3hbc12BytecodeFormE0EE30processOverflowFunctionHeadersEv(ptr noundef nonnull align 8 dereferenceable(288) %this) #0 align 2 {
entry:
  %this.addr = alloca ptr, align 8
  %overflowOffsetAdj = alloca %"struct.(anonymous namespace)::BytecodeFormConverter<hermes::hbc::BytecodeForm::Execution>::Adjuster", align 8
  %__range2 = alloca ptr, align 8
  %__begin2 = alloca ptr, align 8
  %__end2 = alloca ptr, align 8
  %sfh = alloca ptr, align 8
  %fh = alloca ptr, align 8
  store ptr %this, ptr %this.addr, align 8
  %this1 = load ptr, ptr %this.addr, align 8
  call void @_ZN12_GLOBAL__N_121BytecodeFormConverterILN6hermes3hbc12BytecodeFormE0EE8AdjusterC2Ev(ptr noundef nonnull align 8 dereferenceable(8) %overflowOffsetAdj) #10
  %fields_ = getelementptr inbounds %"class.(anonymous namespace)::BytecodeFormConverter.18", ptr %this1, i32 0, i32 1
  %functionHeaders = getelementptr inbounds %"struct.hermes::hbc::BytecodeFileFields", ptr %fields_, i32 0, i32 1
  store ptr %functionHeaders, ptr %__range2, align 8
  %0 = load ptr, ptr %__range2, align 8
  %call = call noundef ptr @_ZNK4llvh15MutableArrayRefIN6hermes3hbc15SmallFuncHeaderEE5beginEv(ptr noundef nonnull align 8 dereferenceable(16) %0)
  store ptr %call, ptr %__begin2, align 8
  %1 = load ptr, ptr %__range2, align 8
  %call2 = call noundef ptr @_ZNK4llvh15MutableArrayRefIN6hermes3hbc15SmallFuncHeaderEE3endEv(ptr noundef nonnull align 8 dereferenceable(16) %1)
  store ptr %call2, ptr %__end2, align 8
  br label %for.cond

for.cond:                                         ; preds = %for.inc, %entry
  %2 = load ptr, ptr %__begin2, align 8
  %3 = load ptr, ptr %__end2, align 8
  %cmp = icmp ne ptr %2, %3
  br i1 %cmp, label %for.body, label %for.end

for.body:                                         ; preds = %for.cond
  %4 = load ptr, ptr %__begin2, align 8
  store ptr %4, ptr %sfh, align 8
  %5 = load ptr, ptr %sfh, align 8
  %flags = getelementptr inbounds %"struct.hermes::hbc::SmallFuncHeader", ptr %5, i32 0, i32 1
  %bf.load = load i8, ptr %flags, align 1
  %bf.lshr = lshr i8 %bf.load, 5
  %bf.clear = and i8 %bf.lshr, 1
  %bf.cast = trunc i8 %bf.clear to i1
  br i1 %bf.cast, label %if.then, label %if.end

if.then:                                          ; preds = %for.body
  %bytes_ = getelementptr inbounds %"class.(anonymous namespace)::BytecodeFormConverter.18", ptr %this1, i32 0, i32 0
  %6 = load ptr, ptr %sfh, align 8
  %call3 = call noundef i32 @_ZNK6hermes3hbc15SmallFuncHeader20getLargeHeaderOffsetEv(ptr noundef nonnull align 1 dereferenceable(16) %6)
  %conv = zext i32 %call3 to i64
  %call4 = call noundef nonnull align 1 dereferenceable(1) ptr @_ZNK4llvh15MutableArrayRefIhEixEm(ptr noundef nonnull align 8 dereferenceable(16) %bytes_, i64 noundef %conv)
  store ptr %call4, ptr %fh, align 8
  %7 = load ptr, ptr %fh, align 8
  %offset = getelementptr inbounds %"struct.hermes::hbc::FunctionHeader", ptr %7, i32 0, i32 0
  call void @_ZN12_GLOBAL__N_121BytecodeFormConverterILN6hermes3hbc12BytecodeFormE0EE8AdjusterclIjEEvRT_(ptr noundef nonnull align 8 dereferenceable(8) %overflowOffsetAdj, ptr noundef nonnull align 4 dereferenceable(4) %offset)
  br label %if.end

if.end:                                           ; preds = %if.then, %for.body
  br label %for.inc

for.inc:                                          ; preds = %if.end
  %8 = load ptr, ptr %__begin2, align 8
  %incdec.ptr = getelementptr inbounds %"struct.hermes::hbc::SmallFuncHeader", ptr %8, i32 1
  store ptr %incdec.ptr, ptr %__begin2, align 8
  br label %for.cond

for.end:                                          ; preds = %for.cond
  ret void
}