; Function Attrs: mustprogress nofree norecurse nosync nounwind memory(readwrite, inaccessiblemem: none) uwtable
define internal void @_ZN12_GLOBAL__N_121BytecodeFormConverterILN6hermes3hbc12BytecodeFormE0EE30processOverflowFunctionHeadersEv(ptr nocapture noundef nonnull readonly align 8 dereferenceable(288) %this) #12 align 2 {
entry:
  %functionHeaders = getelementptr inbounds i8, ptr %this, i64 24
  %0 = load ptr, ptr %functionHeaders, align 8
  %Length.i.i = getelementptr inbounds i8, ptr %this, i64 32
  %1 = load i64, ptr %Length.i.i, align 8
  %add.ptr.i = getelementptr inbounds %"struct.hermes::hbc::SmallFuncHeader", ptr %0, i64 %1
  %cmp.not5 = icmp eq i64 %1, 0
  br i1 %cmp.not5, label %for.end, label %for.body

for.body:                                         ; preds = %entry, %for.inc
  %__begin2.07 = phi ptr [ %incdec.ptr, %for.inc ], [ %0, %entry ]
  %overflowOffsetAdj.sroa.0.06 = phi i32 [ %overflowOffsetAdj.sroa.0.1, %for.inc ], [ 0, %entry ]
  %flags = getelementptr inbounds i8, ptr %__begin2.07, i64 15
  %bf.load = load i8, ptr %flags, align 1
  %2 = and i8 %bf.load, 32
  %bf.cast.not = icmp eq i8 %2, 0
  br i1 %bf.cast.not, label %for.inc, label %if.then

if.then:                                          ; preds = %for.body
  %bf.load.i = load i120, ptr %__begin2.07, align 1
  %sh.diff.i = lshr i120 %bf.load.i, 48
  %tr.sh.diff.i = trunc i120 %sh.diff.i to i64
  %shl.i = and i64 %tr.sh.diff.i, 4294901760
  %3 = trunc i120 %bf.load.i to i64
  %bf.cast4.i = and i64 %3, 33554431
  %or.i = or i64 %shl.i, %bf.cast4.i
  %4 = load ptr, ptr %this, align 8
  %arrayidx.i = getelementptr inbounds i8, ptr %4, i64 %or.i
  %5 = load i32, ptr %arrayidx.i, align 4
  %add.i.i = add i32 %5, %overflowOffsetAdj.sroa.0.06
  store i32 %add.i.i, ptr %arrayidx.i, align 4
  br label %for.inc

for.inc:                                          ; preds = %for.body, %if.then
  %overflowOffsetAdj.sroa.0.1 = phi i32 [ %overflowOffsetAdj.sroa.0.06, %for.body ], [ %add.i.i, %if.then ]
  %incdec.ptr = getelementptr inbounds i8, ptr %__begin2.07, i64 16
  %cmp.not = icmp eq ptr %incdec.ptr, %add.ptr.i
  br i1 %cmp.not, label %for.end, label %for.body

for.end:                                          ; preds = %for.inc, %entry
  ret void
}